(dp1
S' '
I1
sS'('
I65
sS','
I28
sS'0'
I55
sS'4'
I63
sS'8'
I79
sS'<'
I70
sS'D'
I9
sS'H'
I53
sS'L'
I36
sS'P'
I58
sS'T'
I47
sS'\\'
I72
sS'd'
I17
sS'h'
I21
sS'l'
I13
sS'p'
I18
sS't'
I6
sS'x'
I29
sS'\x80'
I85
sS"'"
I25
sS'/'
I75
sS'3'
I69
sS'7'
I64
sS';'
I49
sS'?'
I60
sS'C'
I37
sS'G'
I51
sS'K'
I44
sS'O'
I50
sS'S'
I35
sS'W'
I32
sS'['
I76
sS'c'
I30
sS'g'
I14
sS'k'
I27
sS'o'
I12
sS's'
I5
sS'w'
I16
sS'{'
I82
sS'\n'
I24
sS'&'
I81
sS'*'
I62
sS'.'
I20
sS'2'
I40
sS'6'
I41
sS':'
I56
sS'>'
I71
sS'B'
I34
sS'F'
I43
sS'J'
I59
sS'N'
I45
sS'R'
I68
sS'V'
I73
sS'Z'
I78
sS'^'
I87
sS'b'
I26
sS'f'
I2
sS'j'
I22
sS'n'
I11
sS'r'
I4
sS'v'
I23
sS'z'
I46
sS'\x9e'
I86
sS'!'
I61
sS')'
I66
sS'-'
I31
sS'1'
I38
sS'5'
I54
sS'9'
I39
sS'='
I83
sS'A'
I42
sS'E'
I52
sS'I'
I0
sS'M'
I33
sS'Q'
I74
sS'U'
I67
sS'Y'
I48
sS']'
I77
sS'a'
I10
sS'\xe2'
I84
sS'e'
I8
sS'i'
I3
sS'm'
I7
sS'q'
I57
sS'u'
I19
sS'y'
I15
sS'}'
I80
s.