(dp1
S'\x93'
I76
sS'\x97'
I83
sS' '
I7
sS'('
I52
sS','
I23
sS'0'
I60
sS'4'
I64
sS'8'
I29
sS'D'
I46
sS'H'
I39
sS'L'
I6
sS'P'
I58
sS'T'
I50
sS'X'
I73
sS'd'
I34
sS'\xe7'
I87
sS'h'
I31
sS'l'
I24
sS'p'
I37
sS'\xf3'
I85
sS't'
I22
sS'x'
I36
sS'\x94'
I77
sS'3'
I65
sS'7'
I68
sS';'
I81
sS'?'
I84
sS'C'
I8
sS'G'
I0
sS'K'
I66
sS'O'
I44
sS'S'
I48
sS'W'
I51
sS'c'
I21
sS'g'
I41
sS'\xe8'
I90
sS'k'
I43
sS'o'
I17
sS's'
I15
sS'w'
I13
sS'\n'
I54
sS'\x91'
I88
sS'&'
I71
sS'\xa9'
I70
sS'.'
I38
sS'2'
I28
sS'6'
I62
sS':'
I72
sS'\xc1'
I89
sS'B'
I2
sS'F'
I49
sS'J'
I78
sS'\xcd'
I86
sS'N'
I45
sS'R'
I3
sS'V'
I59
sS'Z'
I12
sS'\xe1'
I42
sS'b'
I16
sS'f'
I35
sS'\xe9'
I79
sS'j'
I74
sS'\xed'
I55
sS'n'
I19
sS'\xf1'
I69
sS'r'
I18
sS'v'
I33
sS'z'
I57
sS'\x92'
I75
sS'\x96'
I67
sS'!'
I82
sS')'
I53
sS'-'
I63
sS'1'
I26
sS'5'
I61
sS'9'
I27
sS'A'
I1
sS'E'
I5
sS'I'
I4
sS'M'
I9
sS'Q'
I10
sS'U'
I11
sS'Y'
I47
sS'\xda'
I80
sS'a'
I14
sS'e'
I32
sS'i'
I20
sS'm'
I25
sS'q'
I56
sS'u'
I30
sS'y'
I40
s.