(dp1
S'\n'
I11
sS'!'
I43
sS' '
I5
sS'$'
I64
sS"'"
I36
sS'&'
I60
sS'-'
I47
sS','
I23
sS'.'
I26
sS'3'
I63
sS';'
I41
sS':'
I10
sS'?'
I32
sS'A'
I27
sS'C'
I6
sS'B'
I12
sS'E'
I50
sS'D'
I52
sS'G'
I57
sS'F'
I0
sS'I'
I38
sS'H'
I49
sS'K'
I58
sS'J'
I56
sS'M'
I34
sS'L'
I37
sS'O'
I44
sS'N'
I39
sS'Q'
I59
sS'P'
I53
sS'S'
I29
sS'R'
I33
sS'U'
I51
sS'T'
I48
sS'W'
I35
sS'V'
I46
sS'Y'
I30
sS'X'
I62
sS'Z'
I61
sS'a'
I19
sS'c'
I17
sS'b'
I42
sS'e'
I8
sS'd'
I18
sS'g'
I40
sS'f'
I13
sS'i'
I1
sS'h'
I22
sS'k'
I25
sS'j'
I45
sS'm'
I24
sS'l'
I28
sS'o'
I14
sS'n'
I9
sS'q'
I54
sS'p'
I16
sS's'
I3
sS'r'
I2
sS'u'
I21
sS't'
I4
sS'w'
I15
sS'v'
I31
sS'y'
I20
sS'x'
I55
sS'z'
I7
s.