(dp1
S'\x80'
I13
sS':'
I61
sS'\x86'
I84
sS'\n'
I23
sS'\xc3'
I83
sS'\x93'
I14
sS'\xc2'
I81
sS'\x94'
I17
sS'\x99'
I74
sS'\x98'
I79
sS' '
I6
sS'"'
I59
sS'$'
I77
sS'\xa7'
I82
sS')'
I36
sS'('
I35
sS'-'
I69
sS','
I22
sS'.'
I20
sS'1'
I9
sS'0'
I10
sS'3'
I63
sS'2'
I21
sS'5'
I15
sS'4'
I64
sS'7'
I11
sS'6'
I16
sS'9'
I67
sS'8'
I68
sS';'
I62
sS'b'
I39
sS'A'
I7
sS'C'
I5
sS'B'
I2
sS'E'
I29
sS'D'
I26
sS'G'
I25
sS'F'
I37
sS'I'
I4
sS'H'
I30
sS'K'
I78
sS'J'
I75
sS'M'
I31
sS'L'
I3
sS'O'
I18
sS'N'
I24
sS'Q'
I34
sS'P'
I0
sS'S'
I27
sS'R'
I28
sS'U'
I1
sS'T'
I19
sS'W'
I8
sS'V'
I33
sS'Y'
I32
sS'X'
I76
sS'['
I72
sS'Z'
I80
sS']'
I73
sS'a'
I43
sS'c'
I42
sS'\xe2'
I12
sS'e'
I51
sS'd'
I53
sS'g'
I49
sS'f'
I55
sS'i'
I41
sS'h'
I46
sS'k'
I66
sS'j'
I70
sS'm'
I56
sS'l'
I40
sS'o'
I47
sS'n'
I48
sS'q'
I60
sS'p'
I54
sS's'
I52
sS'r'
I50
sS'u'
I38
sS't'
I45
sS'w'
I44
sS'v'
I57
sS'y'
I58
sS'x'
I65
sS'z'
I71
s.