(dp1
S'\x80'
I44
sS'\n'
I23
sS'\x94'
I56
sS'\x99'
I45
sS'R'
I57
sS'!'
I67
sS' '
I1
sS"'"
I69
sS'&'
I35
sS'*'
I63
sS'-'
I27
sS','
I18
sS'.'
I49
sS'1'
I58
sS'0'
I61
sS'3'
I60
sS'2'
I65
sS'4'
I64
sS'9'
I59
sS'?'
I66
sS'A'
I33
sS'C'
I41
sS'B'
I34
sS'E'
I31
sS'D'
I55
sS'G'
I62
sS'F'
I46
sS'I'
I0
sS'H'
I30
sS'K'
I50
sS'J'
I48
sS'M'
I32
sS'L'
I37
sS'O'
I51
sS'N'
I38
sS'P'
I40
sS'S'
I47
sS'\xe2'
I43
sS'U'
I53
sS'T'
I36
sS'W'
I52
sS'V'
I68
sS'Y'
I39
sS'Z'
I42
sS'a'
I3
sS'c'
I20
sS'b'
I8
sS'e'
I7
sS'd'
I12
sS'g'
I16
sS'f'
I14
sS'i'
I10
sS'h'
I6
sS'k'
I22
sS'j'
I28
sS'm'
I9
sS'l'
I21
sS'o'
I13
sS'n'
I11
sS'q'
I54
sS'p'
I26
sS's'
I2
sS'r'
I17
sS'u'
I24
sS't'
I5
sS'w'
I4
sS'v'
I19
sS'y'
I15
sS'x'
I25
sS'z'
I29
s.