(dp1
S'\n'
I17
sS'!'
I71
sS' '
I4
sS"'"
I64
sS')'
I70
sS'('
I69
sS'-'
I73
sS','
I39
sS'.'
I34
sS'1'
I30
sS'0'
I55
sS'3'
I43
sS'2'
I35
sS'5'
I46
sS'4'
I45
sS'7'
I51
sS'6'
I50
sS'9'
I54
sS'8'
I52
sS';'
I40
sS':'
I27
sS'?'
I62
sS'A'
I36
sS'C'
I28
sS'B'
I13
sS'E'
I56
sS'D'
I47
sS'G'
I29
sS'F'
I23
sS'I'
I31
sS'H'
I53
sS'K'
I5
sS'J'
I9
sS'M'
I26
sS'L'
I44
sS'O'
I18
sS'N'
I49
sS'Q'
I74
sS'P'
I59
sS'S'
I42
sS'R'
I58
sS'U'
I63
sS'T'
I1
sS'W'
I60
sS'V'
I72
sS'Y'
I61
sS'['
I0
sS'Z'
I66
sS']'
I16
sS'a'
I10
sS'c'
I32
sS'b'
I14
sS'e'
I3
sS'd'
I19
sS'g'
I8
sS'f'
I22
sS'i'
I6
sS'h'
I2
sS'k'
I25
sS'j'
I65
sS'm'
I11
sS'l'
I15
sS'o'
I21
sS'n'
I7
sS'q'
I67
sS'p'
I41
sS's'
I12
sS'r'
I24
sS'u'
I38
sS't'
I20
sS'w'
I37
sS'v'
I33
sS'y'
I48
sS'x'
I57
sS'z'
I68
s.