(dp1
S'\n'
I36
sS'!'
I78
sS' '
I3
sS'"'
I69
sS'$'
I50
sS"'"
I26
sS')'
I35
sS'('
I33
sS'-'
I46
sS','
I9
sS'/'
I76
sS'.'
I2
sS'1'
I52
sS'0'
I61
sS'3'
I63
sS'2'
I62
sS'5'
I57
sS'4'
I53
sS'7'
I67
sS'6'
I64
sS'9'
I68
sS'8'
I51
sS';'
I47
sS':'
I24
sS'?'
I71
sS'A'
I40
sS'C'
I22
sS'B'
I60
sS'E'
I54
sS'D'
I59
sS'G'
I48
sS'F'
I58
sS'I'
I25
sS'H'
I38
sS'K'
I70
sS'J'
I65
sS'M'
I0
sS'L'
I34
sS'O'
I44
sS'N'
I43
sS'Q'
I72
sS'P'
I13
sS'S'
I4
sS'R'
I56
sS'U'
I66
sS'T'
I41
sS'W'
I37
sS'V'
I10
sS'Y'
I39
sS'X'
I77
sS'['
I74
sS'Z'
I73
sS']'
I75
sS'a'
I7
sS'c'
I12
sS'b'
I19
sS'e'
I6
sS'd'
I15
sS'g'
I23
sS'f'
I21
sS'i'
I11
sS'h'
I29
sS'k'
I8
sS'j'
I42
sS'm'
I18
sS'l'
I28
sS'o'
I20
sS'n'
I16
sS'q'
I55
sS'p'
I5
sS's'
I14
sS'r'
I1
sS'u'
I30
sS't'
I17
sS'w'
I31
sS'v'
I27
sS'y'
I32
sS'x'
I49
sS'z'
I45
s.